; Function Attrs: mustprogress uwtable
define void @_ZN2cv4gapi3wip3gst23GStreamerPipelineFacade4playEv(ptr noundef nonnull align 8 dereferenceable(96) %0) local_unnamed_addr #4 align 2 personality ptr @__gxx_personality_v0 {
  %2 = getelementptr inbounds nuw i8, ptr %0, i64 49
  %3 = load atomic i8, ptr %2 acquire, align 1
  %4 = trunc i8 %3 to i1
  br i1 %4, label %19, label %5

5:                                                ; preds = %1
  %6 = getelementptr inbounds nuw i8, ptr %0, i64 56
  %7 = tail call noundef i32 @pthread_mutex_lock(ptr noundef nonnull align 8 dereferenceable(40) %6) #25
  %.not.i.i = icmp eq i32 %7, 0
  br i1 %.not.i.i, label %_ZNSt10lock_guardISt5mutexEC2ERS0_.exit, label %8

8:                                                ; preds = %5
  tail call void @_ZSt20__throw_system_errori(i32 noundef %7) #27
  unreachable

_ZNSt10lock_guardISt5mutexEC2ERS0_.exit:          ; preds = %5
  %9 = load atomic i8, ptr %2 monotonic, align 1
  %10 = trunc i8 %9 to i1
  br i1 %10, label %17, label %11

11:                                               ; preds = %_ZNSt10lock_guardISt5mutexEC2ERS0_.exit
  invoke void @_ZN2cv4gapi3wip3gst23GStreamerPipelineFacade8setStateE8GstState(ptr noundef nonnull align 8 dereferenceable(96) %0, i32 noundef 4)
          to label %12 unwind label %14

12:                                               ; preds = %11
  store atomic i8 1, ptr %2 release, align 1
  %13 = getelementptr inbounds nuw i8, ptr %0, i64 48
  store atomic i8 1, ptr %13 seq_cst, align 8
  br label %17

14:                                               ; preds = %11
  %15 = landingpad { ptr, i32 }
          cleanup
  %16 = tail call noundef i32 @pthread_mutex_unlock(ptr noundef nonnull align 8 dereferenceable(40) %6) #25
  resume { ptr, i32 } %15

17:                                               ; preds = %12, %_ZNSt10lock_guardISt5mutexEC2ERS0_.exit
  %18 = tail call noundef i32 @pthread_mutex_unlock(ptr noundef nonnull align 8 dereferenceable(40) %6) #25
  br label %19

19:                                               ; preds = %17, %1
  ret void
}